target datalayout = "e-m:e-p270:32:32-p271:32:32-p272:64:64-i64:64-i128:128-f80:128-n8:16:32:64-S128"
target triple = "x86_64-pc-linux-gnu"

%struct.b3Int4 = type { %union.anon }
%union.anon = type { %struct.anon }
%struct.anon = type { i32, i32, i32, i32 }
%struct.b3OverlapCallback = type { ptr }
%class.CleanPairCallback.3 = type { %struct.b3OverlapCallback, i32, ptr, ptr }

; Function Attrs: mustprogress uwtable
define internal noundef zeroext i1 @_ZZN28b3SortedOverlappingPairCache19cleanProxyFromPairsEiP12b3DispatcherEN17CleanPairCallback14processOverlapER6b3Int4(ptr noundef nonnull align 8 dereferenceable(32) %0, ptr noundef nonnull align 16 dereferenceable(16) %1) unnamed_addr #0 align 2 {
  %3 = alloca ptr, align 8
  %4 = alloca ptr, align 8
  store ptr %0, ptr %3, align 8, !tbaa !83
  store ptr %1, ptr %4, align 8, !tbaa !30
  %5 = load ptr, ptr %3, align 8
  %6 = load ptr, ptr %4, align 8, !tbaa !30
  %7 = getelementptr inbounds nuw %struct.b3Int4, ptr %6, i32 0, i32 0
  %8 = getelementptr inbounds nuw %struct.anon, ptr %7, i32 0, i32 0
  %9 = load i32, ptr %8, align 16, !tbaa !38
  %10 = getelementptr inbounds nuw %class.CleanPairCallback.3, ptr %5, i32 0, i32 1
  %11 = load i32, ptr %10, align 8, !tbaa !85
  %12 = icmp eq i32 %9, %11
  br i1 %12, label %21, label %13

13:                                               ; preds = %2
  %14 = load ptr, ptr %4, align 8, !tbaa !30
  %15 = getelementptr inbounds nuw %struct.b3Int4, ptr %14, i32 0, i32 0
  %16 = getelementptr inbounds nuw %struct.anon, ptr %15, i32 0, i32 1
  %17 = load i32, ptr %16, align 4, !tbaa !38
  %18 = getelementptr inbounds nuw %class.CleanPairCallback.3, ptr %5, i32 0, i32 1
  %19 = load i32, ptr %18, align 8, !tbaa !85
  %20 = icmp eq i32 %17, %19
  br i1 %20, label %21, label %30

21:                                               ; preds = %13, %2
  %22 = getelementptr inbounds nuw %class.CleanPairCallback.3, ptr %5, i32 0, i32 2
  %23 = load ptr, ptr %22, align 8, !tbaa !87
  %24 = load ptr, ptr %4, align 8, !tbaa !30
  %25 = getelementptr inbounds nuw %class.CleanPairCallback.3, ptr %5, i32 0, i32 3
  %26 = load ptr, ptr %25, align 8, !tbaa !88
  %27 = load ptr, ptr %23, align 8, !tbaa !9
  %28 = getelementptr inbounds ptr, ptr %27, i64 5
  %29 = load ptr, ptr %28, align 8
  call void %29(ptr noundef nonnull align 8 dereferenceable(8) %23, ptr noundef nonnull align 16 dereferenceable(16) %24, ptr noundef %26)
  br label %30

30:                                               ; preds = %21, %13
  ret i1 false
}